target datalayout = "e-m:e-p270:32:32-p271:32:32-p272:64:64-i64:64-i128:128-f80:128-n8:16:32:64-S128"
target triple = "x86_64-pc-linux-gnu"

%struct.Ivy_Man_t_ = type { ptr, ptr, ptr, ptr, ptr, %struct.Ivy_Obj_t_, [8 x i32], i32, i32, ptr, i32, i32, i32, i32, ptr, i32, ptr, ptr, ptr, i32, ptr, ptr, ptr, i64, i64 }
%struct.Ivy_Obj_t_ = type { i32, i32, i32, i32, ptr, ptr, ptr, ptr, ptr, ptr, ptr, ptr }
%struct.Vec_Ptr_t_ = type { i32, i32, ptr }

; Function Attrs: nounwind uwtable
define internal ptr @Vec_PtrEntry(ptr noundef %0, i32 noundef %1) #0 {
  %3 = alloca ptr, align 8
  %4 = alloca i32, align 4
  store ptr %0, ptr %3, align 8
  store i32 %1, ptr %4, align 4
  %5 = load ptr, ptr %3, align 8
  %6 = getelementptr inbounds %struct.Vec_Ptr_t_, ptr %5, i32 0, i32 2
  %7 = load ptr, ptr %6, align 8
  %8 = load i32, ptr %4, align 4
  %9 = sext i32 %8 to i64
  %10 = getelementptr inbounds ptr, ptr %7, i64 %9
  %11 = load ptr, ptr %10, align 8
  ret ptr %11
}

; Function Attrs: nounwind uwtable
define internal i32 @Vec_PtrSize(ptr noundef %0) #0 {
  %2 = alloca ptr, align 8
  store ptr %0, ptr %2, align 8
  %3 = load ptr, ptr %2, align 8
  %4 = getelementptr inbounds %struct.Vec_Ptr_t_, ptr %3, i32 0, i32 1
  %5 = load i32, ptr %4, align 4
  ret i32 %5
}

; Function Attrs: nounwind uwtable
define void @Ivy_ManCleanTravId(ptr noundef %0) #0 {
  %2 = alloca ptr, align 8
  %3 = alloca ptr, align 8
  %4 = alloca i32, align 4
  store ptr %0, ptr %2, align 8
  %5 = load ptr, ptr %2, align 8
  %6 = getelementptr inbounds %struct.Ivy_Man_t_, ptr %5, i32 0, i32 12
  store i32 1, ptr %6, align 8
  store i32 0, ptr %4, align 4
  br label %7

7:                                                ; preds = %30, %1
  %8 = load i32, ptr %4, align 4
  %9 = load ptr, ptr %2, align 8
  %10 = getelementptr inbounds %struct.Ivy_Man_t_, ptr %9, i32 0, i32 3
  %11 = load ptr, ptr %10, align 8
  %12 = call i32 @Vec_PtrSize(ptr noundef %11)
  %13 = icmp slt i32 %8, %12
  br i1 %13, label %14, label %20

14:                                               ; preds = %7
  %15 = load ptr, ptr %2, align 8
  %16 = getelementptr inbounds %struct.Ivy_Man_t_, ptr %15, i32 0, i32 3
  %17 = load ptr, ptr %16, align 8
  %18 = load i32, ptr %4, align 4
  %19 = call ptr @Vec_PtrEntry(ptr noundef %17, i32 noundef %18)
  store ptr %19, ptr %3, align 8
  br label %20

20:                                               ; preds = %14, %7
  %21 = phi i1 [ false, %7 ], [ true, %14 ]
  br i1 %21, label %22, label %33

22:                                               ; preds = %20
  %23 = load ptr, ptr %3, align 8
  %24 = icmp eq ptr %23, null
  br i1 %24, label %25, label %26

25:                                               ; preds = %22
  br label %29

26:                                               ; preds = %22
  %27 = load ptr, ptr %3, align 8
  %28 = getelementptr inbounds %struct.Ivy_Obj_t_, ptr %27, i32 0, i32 1
  store i32 0, ptr %28, align 4
  br label %29

29:                                               ; preds = %26, %25
  br label %30

30:                                               ; preds = %29
  %31 = load i32, ptr %4, align 4
  %32 = add nsw i32 %31, 1
  store i32 %32, ptr %4, align 4
  br label %7, !llvm.loop !4

33:                                               ; preds = %20
  ret void
}

; Function Attrs: nounwind uwtable
define void @Ivy_ManIncrementTravId(ptr noundef %0) #0 {
  %2 = alloca ptr, align 8
  store ptr %0, ptr %2, align 8
  %3 = load ptr, ptr %2, align 8
  %4 = getelementptr inbounds %struct.Ivy_Man_t_, ptr %3, i32 0, i32 12
  %5 = load i32, ptr %4, align 8
  %6 = icmp sge i32 %5, 1073740823
  br i1 %6, label %7, label %9

7:                                                ; preds = %1
  %8 = load ptr, ptr %2, align 8
  call void @Ivy_ManCleanTravId(ptr noundef %8)
  br label %9

9:                                                ; preds = %7, %1
  %10 = load ptr, ptr %2, align 8
  %11 = getelementptr inbounds %struct.Ivy_Man_t_, ptr %10, i32 0, i32 12
  %12 = load i32, ptr %11, align 8
  %13 = add nsw i32 %12, 1
  store i32 %13, ptr %11, align 8
  ret void
}