; Function Attrs: nofree norecurse nosync nounwind memory(readwrite, inaccessiblemem: none) uwtable
define void @Ivy_ManIncrementTravId(ptr noundef captures(none) %0) local_unnamed_addr #0 {
  %2 = getelementptr inbounds nuw i8, ptr %0, i64 176
  %3 = load i32, ptr %2, align 8
  %4 = icmp sgt i32 %3, 1073740822
  br i1 %4, label %5, label %Ivy_ManCleanTravId.exit

5:                                                ; preds = %1
  store i32 1, ptr %2, align 8
  %6 = getelementptr inbounds nuw i8, ptr %0, i64 24
  %7 = load ptr, ptr %6, align 8
  %8 = getelementptr i8, ptr %7, i64 4
  %.val9.i = load i32, ptr %8, align 4
  %9 = icmp sgt i32 %.val9.i, 0
  br i1 %9, label %.lr.ph.i, label %Ivy_ManCleanTravId.exit

.lr.ph.i:                                         ; preds = %5, %17
  %10 = phi ptr [ %18, %17 ], [ %7, %5 ]
  %indvars.iv.i = phi i64 [ %indvars.iv.next.i, %17 ], [ 0, %5 ]
  %11 = getelementptr i8, ptr %10, i64 8
  %.val8.i = load ptr, ptr %11, align 8
  %12 = getelementptr inbounds nuw ptr, ptr %.val8.i, i64 %indvars.iv.i
  %13 = load ptr, ptr %12, align 8
  %14 = icmp eq ptr %13, null
  br i1 %14, label %17, label %15

15:                                               ; preds = %.lr.ph.i
  %16 = getelementptr inbounds nuw i8, ptr %13, i64 4
  store i32 0, ptr %16, align 4
  %.pre.i = load ptr, ptr %6, align 8
  br label %17

17:                                               ; preds = %15, %.lr.ph.i
  %18 = phi ptr [ %.pre.i, %15 ], [ %10, %.lr.ph.i ]
  %indvars.iv.next.i = add nuw nsw i64 %indvars.iv.i, 1
  %19 = getelementptr i8, ptr %18, i64 4
  %.val.i = load i32, ptr %19, align 4
  %20 = sext i32 %.val.i to i64
  %21 = icmp slt i64 %indvars.iv.next.i, %20
  br i1 %21, label %.lr.ph.i, label %Ivy_ManCleanTravId.exit.loopexit, !llvm.loop !4

Ivy_ManCleanTravId.exit.loopexit:                 ; preds = %17
  %.pre = load i32, ptr %2, align 8
  br label %Ivy_ManCleanTravId.exit

Ivy_ManCleanTravId.exit:                          ; preds = %Ivy_ManCleanTravId.exit.loopexit, %5, %1
  %22 = phi i32 [ %.pre, %Ivy_ManCleanTravId.exit.loopexit ], [ 1, %5 ], [ %3, %1 ]
  %23 = add nsw i32 %22, 1
  store i32 %23, ptr %2, align 8
  ret void
}